target datalayout = "e-m:e-p270:32:32-p271:32:32-p272:64:64-i64:64-i128:128-f80:128-n8:16:32:64-S128"
target triple = "x86_64-pc-linux-gnu"

; Function Attrs: mustprogress nounwind uwtable
define internal noundef zeroext i1 @_ZL17is16BitEquivalentPKcS0_(ptr noundef %0, ptr noundef %1) #0 {
  %3 = alloca i1, align 1
  %4 = alloca ptr, align 8
  %5 = alloca ptr, align 8
  %6 = alloca i32, align 4
  store ptr %0, ptr %4, align 8
  store ptr %1, ptr %5, align 8
  store i32 0, ptr %6, align 4
  br label %7

7:                                                ; preds = %132, %2
  %8 = load ptr, ptr %4, align 8
  %9 = load i32, ptr %6, align 4
  %10 = sext i32 %9 to i64
  %11 = getelementptr inbounds i8, ptr %8, i64 %10
  %12 = load i8, ptr %11, align 1
  %13 = sext i8 %12 to i32
  %14 = icmp eq i32 %13, 0
  br i1 %14, label %15, label %24

15:                                               ; preds = %7
  %16 = load ptr, ptr %5, align 8
  %17 = load i32, ptr %6, align 4
  %18 = sext i32 %17 to i64
  %19 = getelementptr inbounds i8, ptr %16, i64 %18
  %20 = load i8, ptr %19, align 1
  %21 = sext i8 %20 to i32
  %22 = icmp eq i32 %21, 0
  br i1 %22, label %23, label %24

23:                                               ; preds = %15
  store i1 true, ptr %3, align 1
  br label %135

24:                                               ; preds = %15, %7
  %25 = load ptr, ptr %4, align 8
  %26 = load i32, ptr %6, align 4
  %27 = sext i32 %26 to i64
  %28 = getelementptr inbounds i8, ptr %25, i64 %27
  %29 = load i8, ptr %28, align 1
  %30 = sext i8 %29 to i32
  %31 = icmp eq i32 %30, 0
  br i1 %31, label %40, label %32

32:                                               ; preds = %24
  %33 = load ptr, ptr %5, align 8
  %34 = load i32, ptr %6, align 4
  %35 = sext i32 %34 to i64
  %36 = getelementptr inbounds i8, ptr %33, i64 %35
  %37 = load i8, ptr %36, align 1
  %38 = sext i8 %37 to i32
  %39 = icmp eq i32 %38, 0
  br i1 %39, label %40, label %41

40:                                               ; preds = %32, %24
  store i1 false, ptr %3, align 1
  br label %135

41:                                               ; preds = %32
  %42 = load ptr, ptr %4, align 8
  %43 = load i32, ptr %6, align 4
  %44 = sext i32 %43 to i64
  %45 = getelementptr inbounds i8, ptr %42, i64 %44
  %46 = load i8, ptr %45, align 1
  %47 = sext i8 %46 to i32
  %48 = load ptr, ptr %5, align 8
  %49 = load i32, ptr %6, align 4
  %50 = sext i32 %49 to i64
  %51 = getelementptr inbounds i8, ptr %48, i64 %50
  %52 = load i8, ptr %51, align 1
  %53 = sext i8 %52 to i32
  %54 = icmp ne i32 %47, %53
  br i1 %54, label %55, label %131

55:                                               ; preds = %41
  %56 = load ptr, ptr %4, align 8
  %57 = load i32, ptr %6, align 4
  %58 = sext i32 %57 to i64
  %59 = getelementptr inbounds i8, ptr %56, i64 %58
  %60 = load i8, ptr %59, align 1
  %61 = sext i8 %60 to i32
  %62 = icmp eq i32 %61, 81
  br i1 %62, label %71, label %63

63:                                               ; preds = %55
  %64 = load ptr, ptr %4, align 8
  %65 = load i32, ptr %6, align 4
  %66 = sext i32 %65 to i64
  %67 = getelementptr inbounds i8, ptr %64, i64 %66
  %68 = load i8, ptr %67, align 1
  %69 = sext i8 %68 to i32
  %70 = icmp eq i32 %69, 76
  br i1 %70, label %71, label %80

71:                                               ; preds = %63, %55
  %72 = load ptr, ptr %5, align 8
  %73 = load i32, ptr %6, align 4
  %74 = sext i32 %73 to i64
  %75 = getelementptr inbounds i8, ptr %72, i64 %74
  %76 = load i8, ptr %75, align 1
  %77 = sext i8 %76 to i32
  %78 = icmp eq i32 %77, 87
  br i1 %78, label %79, label %80

79:                                               ; preds = %71
  br label %132

80:                                               ; preds = %71, %63
  %81 = load ptr, ptr %4, align 8
  %82 = load i32, ptr %6, align 4
  %83 = sext i32 %82 to i64
  %84 = getelementptr inbounds i8, ptr %81, i64 %83
  %85 = load i8, ptr %84, align 1
  %86 = sext i8 %85 to i32
  %87 = icmp eq i32 %86, 54
  br i1 %87, label %96, label %88

88:                                               ; preds = %80
  %89 = load ptr, ptr %4, align 8
  %90 = load i32, ptr %6, align 4
  %91 = sext i32 %90 to i64
  %92 = getelementptr inbounds i8, ptr %89, i64 %91
  %93 = load i8, ptr %92, align 1
  %94 = sext i8 %93 to i32
  %95 = icmp eq i32 %94, 51
  br i1 %95, label %96, label %105

96:                                               ; preds = %88, %80
  %97 = load ptr, ptr %5, align 8
  %98 = load i32, ptr %6, align 4
  %99 = sext i32 %98 to i64
  %100 = getelementptr inbounds i8, ptr %97, i64 %99
  %101 = load i8, ptr %100, align 1
  %102 = sext i8 %101 to i32
  %103 = icmp eq i32 %102, 49
  br i1 %103, label %104, label %105

104:                                              ; preds = %96
  br label %132

105:                                              ; preds = %96, %88
  %106 = load ptr, ptr %4, align 8
  %107 = load i32, ptr %6, align 4
  %108 = sext i32 %107 to i64
  %109 = getelementptr inbounds i8, ptr %106, i64 %108
  %110 = load i8, ptr %109, align 1
  %111 = sext i8 %110 to i32
  %112 = icmp eq i32 %111, 52
  br i1 %112, label %121, label %113

113:                                              ; preds = %105
  %114 = load ptr, ptr %4, align 8
  %115 = load i32, ptr %6, align 4
  %116 = sext i32 %115 to i64
  %117 = getelementptr inbounds i8, ptr %114, i64 %116
  %118 = load i8, ptr %117, align 1
  %119 = sext i8 %118 to i32
  %120 = icmp eq i32 %119, 50
  br i1 %120, label %121, label %130

121:                                              ; preds = %113, %105
  %122 = load ptr, ptr %5, align 8
  %123 = load i32, ptr %6, align 4
  %124 = sext i32 %123 to i64
  %125 = getelementptr inbounds i8, ptr %122, i64 %124
  %126 = load i8, ptr %125, align 1
  %127 = sext i8 %126 to i32
  %128 = icmp eq i32 %127, 54
  br i1 %128, label %129, label %130

129:                                              ; preds = %121
  br label %132

130:                                              ; preds = %121, %113
  store i1 false, ptr %3, align 1
  br label %135

131:                                              ; preds = %41
  br label %132

132:                                              ; preds = %131, %129, %104, %79
  %133 = load i32, ptr %6, align 4
  %134 = add nsw i32 %133, 1
  store i32 %134, ptr %6, align 4
  br label %7, !llvm.loop !7

135:                                              ; preds = %130, %40, %23
  %136 = load i1, ptr %3, align 1
  ret i1 %136
}