; Function Attrs: mustprogress nofree norecurse nosync nounwind willreturn memory(argmem: read) uwtable
define internal fastcc noundef zeroext i1 @_ZL17is16BitEquivalentPKcS0_(ptr noundef readonly captures(none) %0, ptr noundef readonly captures(none) %1) unnamed_addr #8 {
  %3 = load i8, ptr %0, align 1
  %4 = icmp eq i8 %3, 0
  br i1 %4, label %._crit_edge, label %.lr.ph

._crit_edge:                                      ; preds = %21, %2
  %.lcssa = phi i64 [ 0, %2 ], [ %indvars.iv.next, %21 ]
  %5 = getelementptr inbounds nuw i8, ptr %1, i64 %.lcssa
  %6 = load i8, ptr %5, align 1
  %7 = icmp eq i8 %6, 0
  br label %.thread

.lr.ph:                                           ; preds = %2, %21
  %indvars.iv = phi i64 [ %indvars.iv.next, %21 ], [ 0, %2 ]
  %8 = phi i8 [ %23, %21 ], [ %3, %2 ]
  %9 = getelementptr inbounds nuw i8, ptr %1, i64 %indvars.iv
  %10 = load i8, ptr %9, align 1
  %11 = icmp eq i8 %10, 0
  br i1 %11, label %.thread, label %12

12:                                               ; preds = %.lr.ph
  %.not = icmp eq i8 %8, %10
  br i1 %.not, label %21, label %13

13:                                               ; preds = %12
  switch i8 %8, label %.thread [
    i8 81, label %14
    i8 76, label %14
    i8 54, label %16
    i8 51, label %16
    i8 52, label %20
    i8 50, label %20
  ]

14:                                               ; preds = %13, %13
  %15 = icmp eq i8 %10, 87
  br i1 %15, label %21, label %.thread

16:                                               ; preds = %13, %13
  %17 = icmp eq i8 %10, 49
  br i1 %17, label %21, label %18

18:                                               ; preds = %16
  %cond = icmp eq i8 %8, 52
  %19 = icmp eq i8 %10, 54
  %or.cond = and i1 %cond, %19
  br i1 %or.cond, label %21, label %.thread

20:                                               ; preds = %13, %13
  %.old = icmp eq i8 %10, 54
  br i1 %.old, label %21, label %.thread

21:                                               ; preds = %18, %12, %20, %16, %14
  %indvars.iv.next = add nuw nsw i64 %indvars.iv, 1
  %22 = getelementptr inbounds nuw i8, ptr %0, i64 %indvars.iv.next
  %23 = load i8, ptr %22, align 1
  %24 = icmp eq i8 %23, 0
  br i1 %24, label %._crit_edge, label %.lr.ph, !llvm.loop !7

.thread:                                          ; preds = %18, %13, %20, %.lr.ph, %14, %._crit_edge
  %.031 = phi i1 [ %7, %._crit_edge ], [ false, %14 ], [ false, %.lr.ph ], [ false, %20 ], [ false, %13 ], [ false, %18 ]
  ret i1 %.031
}